target datalayout = "e-m:e-p270:32:32-p271:32:32-p272:64:64-i64:64-i128:128-f80:128-n8:16:32:64-S128"
target triple = "x86_64-pc-linux-gnu"

%struct.client = type { i64, i64, ptr, i8, i8, i8, i8, i32, ptr, ptr, ptr, ptr, ptr, i64, i64, i32, ptr, i32, i32, ptr, i64, ptr, ptr, ptr, ptr, ptr, i32, i32, i64, ptr, i64, ptr, i64, i64, i64, i32, ptr, i64, i64, i32, i32, i32, i32, i64, i64, ptr, i64, i64, i64, i64, i64, i64, i64, i64, [41 x i8], i32, ptr, i32, i32, i64, %struct.multiState, %struct.blockingState, i64, ptr, ptr, ptr, ptr, ptr, ptr, ptr, ptr, ptr, ptr, ptr, ptr, ptr, ptr, i64, ptr, i64, i32, ptr, ptr, ptr, i64, %struct.listNode, i64, i64, i32, i64, ptr }
%struct.multiState = type { ptr, i32, i32, i32, i64, i32 }
%struct.blockingState = type { i32, i64, i32, ptr, i32, i32, i64, ptr, ptr, i64 }
%struct.listNode = type { ptr, ptr, ptr }
%struct.dict = type { ptr, [2 x ptr], [2 x i64], i64, i16, [2 x i8], i16, [0 x ptr] }

; Function Attrs: nounwind uwtable
define dso_local i32 @pubsubUnsubscribeAllPatterns(ptr noundef %0, i32 noundef %1) #0 {
  %3 = alloca ptr, align 8
  %4 = alloca i32, align 4
  %5 = alloca i32, align 4
  %6 = alloca ptr, align 8
  %7 = alloca ptr, align 8
  %8 = alloca ptr, align 8
  store ptr %0, ptr %3, align 8, !tbaa !5
  store i32 %1, ptr %4, align 4, !tbaa !69
  call void @llvm.lifetime.start.p0(i64 4, ptr %5) #8
  store i32 0, ptr %5, align 4, !tbaa !69
  %9 = load ptr, ptr %3, align 8, !tbaa !5
  %10 = getelementptr inbounds nuw %struct.client, ptr %9, i32 0, i32 65
  %11 = load ptr, ptr %10, align 8, !tbaa !31
  %12 = getelementptr inbounds nuw %struct.dict, ptr %11, i32 0, i32 2
  %13 = getelementptr inbounds [2 x i64], ptr %12, i64 0, i64 0
  %14 = load i64, ptr %13, align 8, !tbaa !30
  %15 = load ptr, ptr %3, align 8, !tbaa !5
  %16 = getelementptr inbounds nuw %struct.client, ptr %15, i32 0, i32 65
  %17 = load ptr, ptr %16, align 8, !tbaa !31
  %18 = getelementptr inbounds nuw %struct.dict, ptr %17, i32 0, i32 2
  %19 = getelementptr inbounds [2 x i64], ptr %18, i64 0, i64 1
  %20 = load i64, ptr %19, align 8, !tbaa !30
  %21 = add i64 %14, %20
  %22 = icmp ugt i64 %21, 0
  br i1 %22, label %23, label %43

23:                                               ; preds = %2
  call void @llvm.lifetime.start.p0(i64 8, ptr %6) #8
  %24 = load ptr, ptr %3, align 8, !tbaa !5
  %25 = getelementptr inbounds nuw %struct.client, ptr %24, i32 0, i32 65
  %26 = load ptr, ptr %25, align 8, !tbaa !31
  %27 = call ptr @dictGetSafeIterator(ptr noundef %26)
  store ptr %27, ptr %6, align 8, !tbaa !81
  call void @llvm.lifetime.start.p0(i64 8, ptr %7) #8
  br label %28

28:                                               ; preds = %32, %23
  %29 = load ptr, ptr %6, align 8, !tbaa !81
  %30 = call ptr @dictNext(ptr noundef %29)
  store ptr %30, ptr %7, align 8, !tbaa !78
  %31 = icmp ne ptr %30, null
  br i1 %31, label %32, label %41

32:                                               ; preds = %28
  call void @llvm.lifetime.start.p0(i64 8, ptr %8) #8
  %33 = load ptr, ptr %7, align 8, !tbaa !78
  %34 = call ptr @dictGetKey(ptr noundef %33)
  store ptr %34, ptr %8, align 8, !tbaa !33
  %35 = load ptr, ptr %3, align 8, !tbaa !5
  %36 = load ptr, ptr %8, align 8, !tbaa !33
  %37 = load i32, ptr %4, align 4, !tbaa !69
  %38 = call i32 @pubsubUnsubscribePattern(ptr noundef %35, ptr noundef %36, i32 noundef %37)
  %39 = load i32, ptr %5, align 4, !tbaa !69
  %40 = add nsw i32 %39, %38
  store i32 %40, ptr %5, align 4, !tbaa !69
  call void @llvm.lifetime.end.p0(i64 8, ptr %8) #8
  br label %28, !llvm.loop !87

41:                                               ; preds = %28
  %42 = load ptr, ptr %6, align 8, !tbaa !81
  call void @dictReleaseIterator(ptr noundef %42)
  call void @llvm.lifetime.end.p0(i64 8, ptr %7) #8
  call void @llvm.lifetime.end.p0(i64 8, ptr %6) #8
  br label %43

43:                                               ; preds = %41, %2
  %44 = load i32, ptr %4, align 4, !tbaa !69
  %45 = icmp ne i32 %44, 0
  br i1 %45, label %46, label %51

46:                                               ; preds = %43
  %47 = load i32, ptr %5, align 4, !tbaa !69
  %48 = icmp eq i32 %47, 0
  br i1 %48, label %49, label %51

49:                                               ; preds = %46
  %50 = load ptr, ptr %3, align 8, !tbaa !5
  call void @addReplyPubsubPatUnsubscribed(ptr noundef %50, ptr noundef null)
  br label %51

51:                                               ; preds = %49, %46, %43
  %52 = load i32, ptr %5, align 4, !tbaa !69
  call void @llvm.lifetime.end.p0(i64 4, ptr %5) #8
  ret i32 %52
}