; Function Attrs: nounwind uwtable
define dso_local i32 @pubsubUnsubscribeAllPatterns(ptr noundef %0, i32 noundef %1) local_unnamed_addr #2 {
  %3 = getelementptr inbounds nuw i8, ptr %0, i64 576
  %4 = load ptr, ptr %3, align 8, !tbaa !29
  %5 = getelementptr inbounds nuw i8, ptr %4, i64 24
  %6 = load i64, ptr %5, align 8, !tbaa !28
  %7 = getelementptr inbounds nuw i8, ptr %4, i64 32
  %8 = load i64, ptr %7, align 8, !tbaa !28
  %9 = sub i64 0, %8
  %.not = icmp eq i64 %6, %9
  br i1 %.not, label %18, label %10

10:                                               ; preds = %2
  %11 = tail call ptr @dictGetSafeIterator(ptr noundef nonnull %4) #9
  %12 = tail call ptr @dictNext(ptr noundef %11) #9
  %.not1516 = icmp eq ptr %12, null
  br i1 %.not1516, label %._crit_edge, label %.lr.ph

.lr.ph:                                           ; preds = %10, %.lr.ph
  %13 = phi ptr [ %17, %.lr.ph ], [ %12, %10 ]
  %.117 = phi i32 [ %16, %.lr.ph ], [ 0, %10 ]
  %14 = tail call ptr @dictGetKey(ptr noundef nonnull %13) #9
  %15 = tail call i32 @pubsubUnsubscribePattern(ptr noundef %0, ptr noundef %14, i32 noundef %1)
  %16 = add nuw nsw i32 %15, %.117
  %17 = tail call ptr @dictNext(ptr noundef %11) #9
  %.not15 = icmp eq ptr %17, null
  br i1 %.not15, label %._crit_edge, label %.lr.ph, !llvm.loop !80

._crit_edge:                                      ; preds = %.lr.ph, %10
  %.1.lcssa = phi i32 [ 0, %10 ], [ %16, %.lr.ph ]
  tail call void @dictReleaseIterator(ptr noundef %11) #9
  br label %18

18:                                               ; preds = %._crit_edge, %2
  %.0 = phi i32 [ %.1.lcssa, %._crit_edge ], [ 0, %2 ]
  %19 = icmp ne i32 %1, 0
  %20 = icmp eq i32 %.0, 0
  %or.cond = select i1 %19, i1 %20, i1 false
  br i1 %or.cond, label %21, label %22

21:                                               ; preds = %18
  tail call void @addReplyPubsubPatUnsubscribed(ptr noundef %0, ptr noundef null)
  br label %22

22:                                               ; preds = %21, %18
  ret i32 %.0
}